; Function Attrs: mustprogress nounwind uwtable
define dso_local void @_ZN10cmDebugger26cmDebuggerPipeClient_POSIXD1Ev(ptr noundef nonnull align 8 dereferenceable(68) %0) unnamed_addr #2 align 2 personality ptr @__gxx_personality_v0 {
.noexc:
  store ptr getelementptr inbounds ({ [12 x ptr], [11 x ptr] }, ptr @_ZTVN10cmDebugger26cmDebuggerPipeClient_POSIXE, i64 0, i32 0, i64 6), ptr %0, align 8
  %1 = getelementptr inbounds i8, ptr %0, i64 8
  store ptr getelementptr inbounds ({ [12 x ptr], [11 x ptr] }, ptr @_ZTVN10cmDebugger26cmDebuggerPipeClient_POSIXE, i64 0, i32 1, i64 6), ptr %1, align 8
  %2 = getelementptr inbounds i8, ptr %0, i64 64
  %3 = load i32, ptr %2, align 8
  %4 = icmp sgt i32 %3, -1
  br i1 %4, label %5, label %_ZN10cmDebugger26cmDebuggerPipeClient_POSIX5closeEv.exit

5:                                                ; preds = %.noexc
  %6 = invoke i32 @close(i32 noundef %3)
          to label %.noexc1 unwind label %24

.noexc1:                                          ; preds = %5
  store i32 -1, ptr %2, align 8
  br label %_ZN10cmDebugger26cmDebuggerPipeClient_POSIX5closeEv.exit

_ZN10cmDebugger26cmDebuggerPipeClient_POSIX5closeEv.exit: ; preds = %.noexc1, %.noexc
  %7 = getelementptr inbounds i8, ptr %0, i64 32
  tail call void @_ZNSt7__cxx1112basic_stringIcSt11char_traitsIcESaIcEED1Ev(ptr noundef nonnull align 8 dereferenceable(32) %7) #25
  %8 = getelementptr inbounds i8, ptr %0, i64 24
  %9 = load ptr, ptr %8, align 8
  %.not.i.i.i.i.i = icmp eq ptr %9, null
  br i1 %.not.i.i.i.i.i, label %_ZN10cmDebugger26cmDebuggerPipeClient_POSIXD2Ev.exit, label %10

10:                                               ; preds = %_ZN10cmDebugger26cmDebuggerPipeClient_POSIX5closeEv.exit
  %11 = getelementptr inbounds i8, ptr %9, i64 12
  %12 = load i8, ptr @__libc_single_threaded, align 1
  %.not.i.i.i.i.i.i = icmp eq i8 %12, 0
  br i1 %.not.i.i.i.i.i.i, label %16, label %13

13:                                               ; preds = %10
  %14 = load i32, ptr %11, align 4
  %15 = add nsw i32 %14, -1
  store i32 %15, ptr %11, align 4
  br label %18

16:                                               ; preds = %10
  %17 = atomicrmw volatile add ptr %11, i32 -1 acq_rel, align 4
  br label %18

18:                                               ; preds = %16, %13
  %.0.i.i.i.i.i.i = phi i32 [ %14, %13 ], [ %17, %16 ]
  %19 = icmp eq i32 %.0.i.i.i.i.i.i, 1
  br i1 %19, label %20, label %_ZN10cmDebugger26cmDebuggerPipeClient_POSIXD2Ev.exit

20:                                               ; preds = %18
  %21 = load ptr, ptr %9, align 8
  %22 = getelementptr inbounds i8, ptr %21, i64 24
  %23 = load ptr, ptr %22, align 8
  tail call void %23(ptr noundef nonnull align 8 dereferenceable(16) %9) #25
  br label %_ZN10cmDebugger26cmDebuggerPipeClient_POSIXD2Ev.exit

24:                                               ; preds = %5
  %25 = landingpad { ptr, i32 }
          catch ptr null
  %26 = extractvalue { ptr, i32 } %25, 0
  tail call void @__clang_call_terminate(ptr %26) #26
  unreachable

_ZN10cmDebugger26cmDebuggerPipeClient_POSIXD2Ev.exit: ; preds = %_ZN10cmDebugger26cmDebuggerPipeClient_POSIX5closeEv.exit, %18, %20
  ret void
}